; Function Attrs: null_pointer_is_valid sspstrong uwtable
define internal void @dissect_zcl_on_off_switch_configuration_attr_data(ptr noundef %0, ptr noundef %1, ptr noundef %2, i16 noundef zeroext %3, i32 noundef %4, i1 noundef zeroext %5) #0 {
  switch i16 %3, label %19 [
    i16 0, label %7
    i16 16, label %13
  ]

7:                                                ; preds = %6
  %8 = load i32, ptr @hf_zbee_zcl_on_off_switch_configuration_attr_switch_type, align 4
  %9 = load i32, ptr %2, align 4
  %10 = tail call ptr @proto_tree_add_item(ptr noundef %0, i32 noundef %8, ptr noundef %1, i32 noundef %9, i32 noundef 1, i32 noundef 0)
  %11 = load i32, ptr %2, align 4
  %12 = add i32 %11, 1
  store i32 %12, ptr %2, align 4
  br label %20

13:                                               ; preds = %6
  %14 = load i32, ptr @hf_zbee_zcl_on_off_switch_configuration_attr_switch_actions, align 4
  %15 = load i32, ptr %2, align 4
  %16 = tail call ptr @proto_tree_add_item(ptr noundef %0, i32 noundef %14, ptr noundef %1, i32 noundef %15, i32 noundef 1, i32 noundef 0)
  %17 = load i32, ptr %2, align 4
  %18 = add i32 %17, 1
  store i32 %18, ptr %2, align 4
  br label %20

19:                                               ; preds = %6
  tail call void @dissect_zcl_attr_data(ptr noundef %1, ptr noundef %0, ptr noundef %2, i32 noundef %4, i1 noundef zeroext %5)
  br label %20

20:                                               ; preds = %19, %13, %7
  ret void
}